target datalayout = "e-m:e-p270:32:32-p271:32:32-p272:64:64-i64:64-i128:128-f80:128-n8:16:32:64-S128"
target triple = "x86_64-pc-linux-gnu"

%struct.ma_gainer_config = type { i32, i32 }
%struct.ma_gainer = type { %struct.ma_gainer_config, i32, float, ptr, ptr, ptr, i32 }

; Function Attrs: alwaysinline nounwind uwtable
define internal float @ma_mix_f32_fast(float noundef %0, float noundef %1, float noundef %2) #7 {
  %4 = alloca float, align 4
  %5 = alloca float, align 4
  %6 = alloca float, align 4
  %7 = alloca float, align 4
  %8 = alloca float, align 4
  store float %0, ptr %4, align 4, !tbaa !339
  store float %1, ptr %5, align 4, !tbaa !339
  store float %2, ptr %6, align 4, !tbaa !339
  call void @llvm.lifetime.start.p0(i64 4, ptr %7) #16
  %9 = load float, ptr %5, align 4, !tbaa !339
  %10 = load float, ptr %4, align 4, !tbaa !339
  %11 = fsub float %9, %10
  store float %11, ptr %7, align 4, !tbaa !339
  call void @llvm.lifetime.start.p0(i64 4, ptr %8) #16
  %12 = load float, ptr %7, align 4, !tbaa !339
  %13 = load float, ptr %6, align 4, !tbaa !339
  %14 = fmul float %12, %13
  store float %14, ptr %8, align 4, !tbaa !339
  %15 = load float, ptr %4, align 4, !tbaa !339
  %16 = load float, ptr %8, align 4, !tbaa !339
  %17 = fadd float %15, %16
  call void @llvm.lifetime.end.p0(i64 4, ptr %8) #16
  call void @llvm.lifetime.end.p0(i64 4, ptr %7) #16
  ret float %17
}

; Function Attrs: nounwind uwtable
define internal float @ma_gainer_calculate_current_gain(ptr noundef %0, i32 noundef %1) #0 {
  %3 = alloca ptr, align 8
  %4 = alloca i32, align 4
  %5 = alloca float, align 4
  store ptr %0, ptr %3, align 8, !tbaa !25
  store i32 %1, ptr %4, align 4, !tbaa !8
  call void @llvm.lifetime.start.p0(i64 4, ptr %5) #16
  %6 = load ptr, ptr %3, align 8, !tbaa !25
  %7 = getelementptr inbounds nuw %struct.ma_gainer, ptr %6, i32 0, i32 1
  %8 = load i32, ptr %7, align 8, !tbaa !551
  %9 = uitofp i32 %8 to float
  %10 = load ptr, ptr %3, align 8, !tbaa !25
  %11 = getelementptr inbounds nuw %struct.ma_gainer, ptr %10, i32 0, i32 0
  %12 = getelementptr inbounds nuw %struct.ma_gainer_config, ptr %11, i32 0, i32 1
  %13 = load i32, ptr %12, align 4, !tbaa !554
  %14 = uitofp i32 %13 to float
  %15 = fdiv float %9, %14
  store float %15, ptr %5, align 4, !tbaa !339
  %16 = load ptr, ptr %3, align 8, !tbaa !25
  %17 = getelementptr inbounds nuw %struct.ma_gainer, ptr %16, i32 0, i32 3
  %18 = load ptr, ptr %17, align 8, !tbaa !548
  %19 = load i32, ptr %4, align 4, !tbaa !8
  %20 = zext i32 %19 to i64
  %21 = getelementptr inbounds nuw float, ptr %18, i64 %20
  %22 = load float, ptr %21, align 4, !tbaa !339
  %23 = load ptr, ptr %3, align 8, !tbaa !25
  %24 = getelementptr inbounds nuw %struct.ma_gainer, ptr %23, i32 0, i32 4
  %25 = load ptr, ptr %24, align 8, !tbaa !549
  %26 = load i32, ptr %4, align 4, !tbaa !8
  %27 = zext i32 %26 to i64
  %28 = getelementptr inbounds nuw float, ptr %25, i64 %27
  %29 = load float, ptr %28, align 4, !tbaa !339
  %30 = load float, ptr %5, align 4, !tbaa !339
  %31 = call float @ma_mix_f32_fast(float noundef %22, float noundef %29, float noundef %30)
  call void @llvm.lifetime.end.p0(i64 4, ptr %5) #16
  ret float %31
}

; Function Attrs: nounwind uwtable
define internal void @ma_gainer_reset_smoothing_time(ptr noundef %0) #0 {
  %2 = alloca ptr, align 8
  store ptr %0, ptr %2, align 8, !tbaa !25
  %3 = load ptr, ptr %2, align 8, !tbaa !25
  %4 = getelementptr inbounds nuw %struct.ma_gainer, ptr %3, i32 0, i32 1
  %5 = load i32, ptr %4, align 8, !tbaa !551
  %6 = icmp eq i32 %5, -1
  br i1 %6, label %7, label %14

7:                                                ; preds = %1
  %8 = load ptr, ptr %2, align 8, !tbaa !25
  %9 = getelementptr inbounds nuw %struct.ma_gainer, ptr %8, i32 0, i32 0
  %10 = getelementptr inbounds nuw %struct.ma_gainer_config, ptr %9, i32 0, i32 1
  %11 = load i32, ptr %10, align 4, !tbaa !554
  %12 = load ptr, ptr %2, align 8, !tbaa !25
  %13 = getelementptr inbounds nuw %struct.ma_gainer, ptr %12, i32 0, i32 1
  store i32 %11, ptr %13, align 8, !tbaa !551
  br label %17

14:                                               ; preds = %1
  %15 = load ptr, ptr %2, align 8, !tbaa !25
  %16 = getelementptr inbounds nuw %struct.ma_gainer, ptr %15, i32 0, i32 1
  store i32 0, ptr %16, align 8, !tbaa !551
  br label %17

17:                                               ; preds = %14, %7
  ret void
}

; Function Attrs: nounwind uwtable
define internal void @ma_gainer_set_gain_by_index(ptr noundef %0, float noundef %1, i32 noundef %2) #0 {
  %4 = alloca ptr, align 8
  %5 = alloca float, align 4
  %6 = alloca i32, align 4
  store ptr %0, ptr %4, align 8, !tbaa !25
  store float %1, ptr %5, align 4, !tbaa !339
  store i32 %2, ptr %6, align 4, !tbaa !8
  %7 = load ptr, ptr %4, align 8, !tbaa !25
  %8 = load i32, ptr %6, align 4, !tbaa !8
  %9 = call float @ma_gainer_calculate_current_gain(ptr noundef %7, i32 noundef %8)
  %10 = load ptr, ptr %4, align 8, !tbaa !25
  %11 = getelementptr inbounds nuw %struct.ma_gainer, ptr %10, i32 0, i32 3
  %12 = load ptr, ptr %11, align 8, !tbaa !548
  %13 = load i32, ptr %6, align 4, !tbaa !8
  %14 = zext i32 %13 to i64
  %15 = getelementptr inbounds nuw float, ptr %12, i64 %14
  store float %9, ptr %15, align 4, !tbaa !339
  %16 = load float, ptr %5, align 4, !tbaa !339
  %17 = load ptr, ptr %4, align 8, !tbaa !25
  %18 = getelementptr inbounds nuw %struct.ma_gainer, ptr %17, i32 0, i32 4
  %19 = load ptr, ptr %18, align 8, !tbaa !549
  %20 = load i32, ptr %6, align 4, !tbaa !8
  %21 = zext i32 %20 to i64
  %22 = getelementptr inbounds nuw float, ptr %19, i64 %21
  store float %16, ptr %22, align 4, !tbaa !339
  ret void
}

; Function Attrs: nounwind uwtable
define i32 @ma_gainer_set_gain(ptr noundef %0, float noundef %1) #0 {
  %3 = alloca i32, align 4
  %4 = alloca ptr, align 8
  %5 = alloca float, align 4
  %6 = alloca i32, align 4
  %7 = alloca i32, align 4
  store ptr %0, ptr %4, align 8, !tbaa !25
  store float %1, ptr %5, align 4, !tbaa !339
  call void @llvm.lifetime.start.p0(i64 4, ptr %6) #16
  %8 = load ptr, ptr %4, align 8, !tbaa !25
  %9 = icmp eq ptr %8, null
  br i1 %9, label %10, label %11

10:                                               ; preds = %2
  store i32 -2, ptr %3, align 4
  store i32 1, ptr %7, align 4
  br label %28

11:                                               ; preds = %2
  store i32 0, ptr %6, align 4, !tbaa !8
  br label %12

12:                                               ; preds = %23, %11
  %13 = load i32, ptr %6, align 4, !tbaa !8
  %14 = load ptr, ptr %4, align 8, !tbaa !25
  %15 = getelementptr inbounds nuw %struct.ma_gainer, ptr %14, i32 0, i32 0
  %16 = getelementptr inbounds nuw %struct.ma_gainer_config, ptr %15, i32 0, i32 0
  %17 = load i32, ptr %16, align 8, !tbaa !555
  %18 = icmp ult i32 %13, %17
  br i1 %18, label %19, label %26

19:                                               ; preds = %12
  %20 = load ptr, ptr %4, align 8, !tbaa !25
  %21 = load float, ptr %5, align 4, !tbaa !339
  %22 = load i32, ptr %6, align 4, !tbaa !8
  call void @ma_gainer_set_gain_by_index(ptr noundef %20, float noundef %21, i32 noundef %22)
  br label %23

23:                                               ; preds = %19
  %24 = load i32, ptr %6, align 4, !tbaa !8
  %25 = add i32 %24, 1
  store i32 %25, ptr %6, align 4, !tbaa !8
  br label %12, !llvm.loop !576

26:                                               ; preds = %12
  %27 = load ptr, ptr %4, align 8, !tbaa !25
  call void @ma_gainer_reset_smoothing_time(ptr noundef %27)
  store i32 0, ptr %3, align 4
  store i32 1, ptr %7, align 4
  br label %28

28:                                               ; preds = %26, %10
  call void @llvm.lifetime.end.p0(i64 4, ptr %6) #16
  %29 = load i32, ptr %3, align 4
  ret i32 %29
}