; Function Attrs: nofree norecurse nosync nounwind memory(readwrite, inaccessiblemem: none) uwtable
define range(i32 -2, 1) i32 @ma_gainer_set_gain(ptr noundef captures(address_is_null) %0, float noundef %1) local_unnamed_addr #31 {
  %3 = icmp eq ptr %0, null
  br i1 %3, label %27, label %.preheader

.preheader:                                       ; preds = %2
  %4 = load i32, ptr %0, align 8, !tbaa !708
  %.not = icmp eq i32 %4, 0
  %.phi.trans.insert = getelementptr inbounds nuw i8, ptr %0, i64 8
  %.pre = load i32, ptr %.phi.trans.insert, align 8, !tbaa !698
  br i1 %.not, label %._crit_edge, label %.lr.ph

.lr.ph:                                           ; preds = %.preheader
  %5 = uitofp i32 %.pre to float
  %6 = getelementptr inbounds nuw i8, ptr %0, i64 4
  %7 = load i32, ptr %6, align 4, !tbaa !707
  %8 = uitofp i32 %7 to float
  %9 = fdiv float %5, %8
  %10 = getelementptr inbounds nuw i8, ptr %0, i64 16
  %11 = load ptr, ptr %10, align 8, !tbaa !695
  %12 = getelementptr inbounds nuw i8, ptr %0, i64 24
  %13 = load ptr, ptr %12, align 8, !tbaa !696
  %wide.trip.count = zext i32 %4 to i64
  br label %14

14:                                               ; preds = %.lr.ph, %14
  %indvars.iv = phi i64 [ 0, %.lr.ph ], [ %indvars.iv.next, %14 ]
  %15 = getelementptr inbounds nuw float, ptr %11, i64 %indvars.iv
  %16 = load float, ptr %15, align 4, !tbaa !339
  %17 = getelementptr inbounds nuw float, ptr %13, i64 %indvars.iv
  %18 = load float, ptr %17, align 4, !tbaa !339
  %19 = fsub float %18, %16
  %20 = fmul float %9, %19
  %21 = fadd float %16, %20
  store float %21, ptr %15, align 4, !tbaa !339
  store float %1, ptr %17, align 4, !tbaa !339
  %indvars.iv.next = add nuw nsw i64 %indvars.iv, 1
  %exitcond.not = icmp eq i64 %indvars.iv.next, %wide.trip.count
  br i1 %exitcond.not, label %._crit_edge, label %14, !llvm.loop !720

._crit_edge:                                      ; preds = %14, %.preheader
  %22 = getelementptr inbounds nuw i8, ptr %0, i64 8
  %23 = icmp eq i32 %.pre, -1
  br i1 %23, label %24, label %ma_gainer_reset_smoothing_time.exit

24:                                               ; preds = %._crit_edge
  %25 = getelementptr inbounds nuw i8, ptr %0, i64 4
  %26 = load i32, ptr %25, align 4, !tbaa !707
  br label %ma_gainer_reset_smoothing_time.exit

ma_gainer_reset_smoothing_time.exit:              ; preds = %._crit_edge, %24
  %storemerge.i = phi i32 [ %26, %24 ], [ 0, %._crit_edge ]
  store i32 %storemerge.i, ptr %22, align 8, !tbaa !698
  br label %27

27:                                               ; preds = %2, %ma_gainer_reset_smoothing_time.exit
  %.08 = phi i32 [ 0, %ma_gainer_reset_smoothing_time.exit ], [ -2, %2 ]
  ret i32 %.08
}